; Function Attrs: mustprogress nounwind uwtable
define void @_ZN2cv10MediaFrame4ViewD2Ev(ptr noundef nonnull align 8 dereferenceable(96) %0) unnamed_addr #9 align 2 personality ptr @__gxx_personality_v0 {
  %2 = getelementptr inbounds nuw i8, ptr %0, i64 64
  %3 = getelementptr inbounds nuw i8, ptr %0, i64 80
  %4 = load ptr, ptr %3, align 8, !tbaa !27
  %.not.i.i.not = icmp eq ptr %4, null
  br i1 %.not.i.i.not, label %_ZNSt14_Function_baseD2Ev.exit, label %5

5:                                                ; preds = %1
  %6 = getelementptr inbounds nuw i8, ptr %0, i64 88
  %7 = load ptr, ptr %6, align 8, !tbaa !24
  invoke void %7(ptr noundef nonnull align 8 dereferenceable(32) %2)
          to label %_ZNKSt8functionIFvvEEclEv.exit unwind label %13

_ZNKSt8functionIFvvEEclEv.exit:                   ; preds = %5
  %.pr = load ptr, ptr %3, align 8, !tbaa !27
  %.not.i = icmp eq ptr %.pr, null
  br i1 %.not.i, label %_ZNSt14_Function_baseD2Ev.exit, label %8

8:                                                ; preds = %_ZNKSt8functionIFvvEEclEv.exit
  %9 = invoke noundef zeroext i1 %.pr(ptr noundef nonnull align 8 dereferenceable(32) %2, ptr noundef nonnull align 8 dereferenceable(32) %2, i32 noundef 3)
          to label %_ZNSt14_Function_baseD2Ev.exit unwind label %10

10:                                               ; preds = %8
  %11 = landingpad { ptr, i32 }
          catch ptr null
  %12 = extractvalue { ptr, i32 } %11, 0
  tail call void @__clang_call_terminate(ptr %12) #26
  unreachable

_ZNSt14_Function_baseD2Ev.exit:                   ; preds = %1, %_ZNKSt8functionIFvvEEclEv.exit, %8
  ret void

13:                                               ; preds = %5
  %14 = landingpad { ptr, i32 }
          catch ptr null
  %15 = extractvalue { ptr, i32 } %14, 0
  tail call void @__clang_call_terminate(ptr %15) #26
  unreachable
}